; Function Attrs: mustprogress nofree norecurse nosync nounwind willreturn memory(argmem: readwrite) uwtable
define void @EC_KEY_METHOD_get_sign(ptr noundef readonly captures(none) %0, ptr noundef writeonly captures(address_is_null) %1, ptr noundef writeonly captures(address_is_null) %2, ptr noundef writeonly captures(address_is_null) %3) local_unnamed_addr #9 {
  %.not = icmp eq ptr %1, null
  br i1 %.not, label %8, label %5

5:                                                ; preds = %4
  %6 = getelementptr inbounds nuw i8, ptr %0, i64 80
  %7 = load ptr, ptr %6, align 8, !tbaa !42
  store ptr %7, ptr %1, align 8, !tbaa !35
  br label %8

8:                                                ; preds = %5, %4
  %.not11 = icmp eq ptr %2, null
  br i1 %.not11, label %12, label %9

9:                                                ; preds = %8
  %10 = getelementptr inbounds nuw i8, ptr %0, i64 88
  %11 = load ptr, ptr %10, align 8, !tbaa !43
  store ptr %11, ptr %2, align 8, !tbaa !35
  br label %12

12:                                               ; preds = %9, %8
  %.not12 = icmp eq ptr %3, null
  br i1 %.not12, label %16, label %13

13:                                               ; preds = %12
  %14 = getelementptr inbounds nuw i8, ptr %0, i64 96
  %15 = load ptr, ptr %14, align 8, !tbaa !44
  store ptr %15, ptr %3, align 8, !tbaa !35
  br label %16

16:                                               ; preds = %13, %12
  ret void
}